target datalayout = "e-m:e-p270:32:32-p271:32:32-p272:64:64-i64:64-i128:128-f80:128-n8:16:32:64-S128"
target triple = "x86_64-pc-linux-gnu"

%struct._pattern = type { i32, %union.anon.67, i32, i32, i32, i32 }
%union.anon.67 = type { %struct.anon.72 }
%struct.anon.72 = type { ptr, ptr, ptr, ptr }

@PyExc_ValueError = external global ptr, align 8
@.str.69 = private unnamed_addr constant [39 x i8] c"field 'cls' is required for MatchClass\00", align 1

; Function Attrs: nounwind uwtable
define hidden ptr @_PyAST_MatchClass(ptr noundef %0, ptr noundef %1, ptr noundef %2, ptr noundef %3, i32 noundef %4, i32 noundef %5, i32 noundef %6, i32 noundef %7, ptr noundef %8) #0 {
  %10 = alloca ptr, align 8
  %11 = alloca ptr, align 8
  %12 = alloca ptr, align 8
  %13 = alloca ptr, align 8
  %14 = alloca ptr, align 8
  %15 = alloca i32, align 4
  %16 = alloca i32, align 4
  %17 = alloca i32, align 4
  %18 = alloca i32, align 4
  %19 = alloca ptr, align 8
  %20 = alloca ptr, align 8
  %21 = alloca i32, align 4
  store ptr %0, ptr %11, align 8, !tbaa !34
  store ptr %1, ptr %12, align 8, !tbaa !26
  store ptr %2, ptr %13, align 8, !tbaa !26
  store ptr %3, ptr %14, align 8, !tbaa !26
  store i32 %4, ptr %15, align 4, !tbaa !38
  store i32 %5, ptr %16, align 4, !tbaa !38
  store i32 %6, ptr %17, align 4, !tbaa !38
  store i32 %7, ptr %18, align 4, !tbaa !38
  store ptr %8, ptr %19, align 8, !tbaa !24
  call void @llvm.lifetime.start.p0(i64 8, ptr %20) #8
  %22 = load ptr, ptr %11, align 8, !tbaa !34
  %23 = icmp ne ptr %22, null
  br i1 %23, label %26, label %24

24:                                               ; preds = %9
  %25 = load ptr, ptr @PyExc_ValueError, align 8, !tbaa !13
  call void @PyErr_SetString(ptr noundef %25, ptr noundef @.str.69)
  store ptr null, ptr %10, align 8
  store i32 1, ptr %21, align 4
  br label %64

26:                                               ; preds = %9
  %27 = load ptr, ptr %19, align 8, !tbaa !24
  %28 = call ptr @_PyArena_Malloc(ptr noundef %27, i64 noundef 56)
  store ptr %28, ptr %20, align 8, !tbaa !109
  %29 = load ptr, ptr %20, align 8, !tbaa !109
  %30 = icmp ne ptr %29, null
  br i1 %30, label %32, label %31

31:                                               ; preds = %26
  store ptr null, ptr %10, align 8
  store i32 1, ptr %21, align 4
  br label %64

32:                                               ; preds = %26
  %33 = load ptr, ptr %20, align 8, !tbaa !109
  %34 = getelementptr inbounds nuw %struct._pattern, ptr %33, i32 0, i32 0
  store i32 5, ptr %34, align 8, !tbaa !117
  %35 = load ptr, ptr %11, align 8, !tbaa !34
  %36 = load ptr, ptr %20, align 8, !tbaa !109
  %37 = getelementptr inbounds nuw %struct._pattern, ptr %36, i32 0, i32 1
  %38 = getelementptr inbounds nuw %struct.anon.72, ptr %37, i32 0, i32 0
  store ptr %35, ptr %38, align 8, !tbaa !21
  %39 = load ptr, ptr %12, align 8, !tbaa !26
  %40 = load ptr, ptr %20, align 8, !tbaa !109
  %41 = getelementptr inbounds nuw %struct._pattern, ptr %40, i32 0, i32 1
  %42 = getelementptr inbounds nuw %struct.anon.72, ptr %41, i32 0, i32 1
  store ptr %39, ptr %42, align 8, !tbaa !21
  %43 = load ptr, ptr %13, align 8, !tbaa !26
  %44 = load ptr, ptr %20, align 8, !tbaa !109
  %45 = getelementptr inbounds nuw %struct._pattern, ptr %44, i32 0, i32 1
  %46 = getelementptr inbounds nuw %struct.anon.72, ptr %45, i32 0, i32 2
  store ptr %43, ptr %46, align 8, !tbaa !21
  %47 = load ptr, ptr %14, align 8, !tbaa !26
  %48 = load ptr, ptr %20, align 8, !tbaa !109
  %49 = getelementptr inbounds nuw %struct._pattern, ptr %48, i32 0, i32 1
  %50 = getelementptr inbounds nuw %struct.anon.72, ptr %49, i32 0, i32 3
  store ptr %47, ptr %50, align 8, !tbaa !21
  %51 = load i32, ptr %15, align 4, !tbaa !38
  %52 = load ptr, ptr %20, align 8, !tbaa !109
  %53 = getelementptr inbounds nuw %struct._pattern, ptr %52, i32 0, i32 2
  store i32 %51, ptr %53, align 8, !tbaa !119
  %54 = load i32, ptr %16, align 4, !tbaa !38
  %55 = load ptr, ptr %20, align 8, !tbaa !109
  %56 = getelementptr inbounds nuw %struct._pattern, ptr %55, i32 0, i32 3
  store i32 %54, ptr %56, align 4, !tbaa !120
  %57 = load i32, ptr %17, align 4, !tbaa !38
  %58 = load ptr, ptr %20, align 8, !tbaa !109
  %59 = getelementptr inbounds nuw %struct._pattern, ptr %58, i32 0, i32 4
  store i32 %57, ptr %59, align 8, !tbaa !121
  %60 = load i32, ptr %18, align 4, !tbaa !38
  %61 = load ptr, ptr %20, align 8, !tbaa !109
  %62 = getelementptr inbounds nuw %struct._pattern, ptr %61, i32 0, i32 5
  store i32 %60, ptr %62, align 4, !tbaa !122
  %63 = load ptr, ptr %20, align 8, !tbaa !109
  store ptr %63, ptr %10, align 8
  store i32 1, ptr %21, align 4
  br label %64

64:                                               ; preds = %32, %31, %24
  call void @llvm.lifetime.end.p0(i64 8, ptr %20) #8
  %65 = load ptr, ptr %10, align 8
  ret ptr %65
}