; Function Attrs: nounwind uwtable
define hidden ptr @_PyAST_MatchClass(ptr noundef %0, ptr noundef %1, ptr noundef %2, ptr noundef %3, i32 noundef %4, i32 noundef %5, i32 noundef %6, i32 noundef %7, ptr noundef %8) local_unnamed_addr #0 {
  %.not = icmp eq ptr %0, null
  br i1 %.not, label %10, label %12

10:                                               ; preds = %9
  %11 = load ptr, ptr @PyExc_ValueError, align 8, !tbaa !4
  tail call void @PyErr_SetString(ptr noundef %11, ptr noundef nonnull @.str.69) #8
  br label %23

12:                                               ; preds = %9
  %13 = tail call ptr @_PyArena_Malloc(ptr noundef %8, i64 noundef 56) #8
  %.not23 = icmp eq ptr %13, null
  br i1 %.not23, label %23, label %14

14:                                               ; preds = %12
  store i32 5, ptr %13, align 8, !tbaa !83
  %15 = getelementptr inbounds nuw i8, ptr %13, i64 8
  store ptr %0, ptr %15, align 8, !tbaa !9
  %16 = getelementptr inbounds nuw i8, ptr %13, i64 16
  store ptr %1, ptr %16, align 8, !tbaa !9
  %17 = getelementptr inbounds nuw i8, ptr %13, i64 24
  store ptr %2, ptr %17, align 8, !tbaa !9
  %18 = getelementptr inbounds nuw i8, ptr %13, i64 32
  store ptr %3, ptr %18, align 8, !tbaa !9
  %19 = getelementptr inbounds nuw i8, ptr %13, i64 40
  store i32 %4, ptr %19, align 8, !tbaa !85
  %20 = getelementptr inbounds nuw i8, ptr %13, i64 44
  store i32 %5, ptr %20, align 4, !tbaa !86
  %21 = getelementptr inbounds nuw i8, ptr %13, i64 48
  store i32 %6, ptr %21, align 8, !tbaa !87
  %22 = getelementptr inbounds nuw i8, ptr %13, i64 52
  store i32 %7, ptr %22, align 4, !tbaa !88
  br label %23

23:                                               ; preds = %12, %14, %10
  %.0 = phi ptr [ %13, %14 ], [ null, %10 ], [ null, %12 ]
  ret ptr %.0
}